target datalayout = "e-m:e-p270:32:32-p271:32:32-p272:64:64-i64:64-i128:128-f80:128-n8:16:32:64-S128"
target triple = "x86_64-pc-linux-gnu"

%struct.___itt_global = type { [8 x i8], i64, i64, i64, i64, i64, i64, %union.pthread_mutex_t, ptr, ptr, ptr, ptr, ptr, ptr, ptr, ptr, i32, ptr, i32, ptr, ptr }
%union.pthread_mutex_t = type { %struct.__pthread_mutex_s }
%struct.__pthread_mutex_s = type { i32, i32, i32, i32, i32, i16, i16, %struct.__pthread_internal_list }
%struct.__pthread_internal_list = type { ptr, ptr }

@__itt_heap_allocate_end_ptr__3_0 = global ptr @_ZL32__itt_heap_allocate_end_init_3_0PvPS_mi, align 8

; Function Attrs: mustprogress sspstrong uwtable
define internal void @_ZL32__itt_heap_allocate_end_init_3_0PvPS_mi(ptr noundef %0, ptr noundef %1, i64 noundef %2, i32 noundef %3) #0 {
  %5 = alloca ptr, align 8
  %6 = alloca ptr, align 8
  %7 = alloca i64, align 8
  %8 = alloca i32, align 4
  store ptr %0, ptr %5, align 8, !tbaa !22
  store ptr %1, ptr %6, align 8, !tbaa !29
  store i64 %2, ptr %7, align 8, !tbaa !28
  store i32 %3, ptr %8, align 4, !tbaa !25
  %9 = load volatile i64, ptr getelementptr inbounds nuw (%struct.___itt_global, ptr @__itt__ittapi_global, i32 0, i32 4), align 8, !tbaa !3
  %10 = icmp ne i64 %9, 0
  br i1 %10, label %15, label %11

11:                                               ; preds = %4
  %12 = load ptr, ptr getelementptr inbounds nuw (%struct.___itt_global, ptr @__itt__ittapi_global, i32 0, i32 13), align 8, !tbaa !21
  %13 = icmp eq ptr %12, null
  br i1 %13, label %14, label %15

14:                                               ; preds = %11
  call void @ITT_DoOneTimeInitialization()
  br label %15

15:                                               ; preds = %14, %11, %4
  %16 = load ptr, ptr @__itt_heap_allocate_end_ptr__3_0, align 8, !tbaa !22
  %17 = icmp ne ptr %16, null
  br i1 %17, label %18, label %27

18:                                               ; preds = %15
  %19 = load ptr, ptr @__itt_heap_allocate_end_ptr__3_0, align 8, !tbaa !22
  %20 = icmp ne ptr %19, @_ZL32__itt_heap_allocate_end_init_3_0PvPS_mi
  br i1 %20, label %21, label %27

21:                                               ; preds = %18
  %22 = load ptr, ptr @__itt_heap_allocate_end_ptr__3_0, align 8, !tbaa !22
  %23 = load ptr, ptr %5, align 8, !tbaa !22
  %24 = load ptr, ptr %6, align 8, !tbaa !29
  %25 = load i64, ptr %7, align 8, !tbaa !28
  %26 = load i32, ptr %8, align 4, !tbaa !25
  call void %22(ptr noundef %23, ptr noundef %24, i64 noundef %25, i32 noundef %26)
  br label %28

27:                                               ; preds = %18, %15
  br label %28

28:                                               ; preds = %27, %21
  ret void
}